; Function Attrs: mustprogress uwtable
define void @_ZN7rocksdb18serialize_endpointERKNS_8EndpointEPNSt7__cxx1112basic_stringIcSt11char_traitsIcESaIcEEE(ptr nocapture noundef nonnull readonly align 8 dereferenceable(17) %endp, ptr noundef nonnull %buf) local_unnamed_addr #2 {
entry:
  %inf_suffix = getelementptr inbounds i8, ptr %endp, i64 16
  %0 = load i8, ptr %inf_suffix, align 8
  %1 = and i8 %0, 1
  tail call void @_ZNSt7__cxx1112basic_stringIcSt11char_traitsIcESaIcEE9push_backEc(ptr noundef nonnull align 8 dereferenceable(32) %buf, i8 noundef signext %1)
  %2 = load ptr, ptr %endp, align 8
  %size_.i = getelementptr inbounds i8, ptr %endp, i64 8
  %3 = load i64, ptr %size_.i, align 8
  %call3 = tail call noundef nonnull align 8 dereferenceable(32) ptr @_ZNSt7__cxx1112basic_stringIcSt11char_traitsIcESaIcEE6appendEPKcm(ptr noundef nonnull align 8 dereferenceable(32) %buf, ptr noundef %2, i64 noundef %3)
  ret void
}